target datalayout = "e-m:e-p270:32:32-p271:32:32-p272:64:64-i64:64-i128:128-f80:128-n8:16:32:64-S128"
target triple = "x86_64-pc-linux-gnu"

%"class.frozen::map.12" = type { [8 x i8], %"class.frozen::bits::carray.13" }
%"class.frozen::bits::carray.13" = type { [3 x %"struct.std::pair.14"] }
%"struct.std::pair.14" = type { i64, ptr }
%"struct.frozen::bits::LowerBound.20" = type { ptr, ptr }

@.str.7 = private unnamed_addr constant [8 x i8] c"UNKNOWN\00", align 1

; Function Attrs: inlinehint mustprogress nounwind uwtable
define linkonce_odr hidden noundef ptr @_ZN6frozen4bits10LowerBoundIN4LIEF5MachO10ExportInfo5FLAGSENS_4impl10CompareKeyISt4lessIS5_EEEE9doit_fastIPKSt4pairIS5_PKcEEET_SJ_St17integral_constantImLm0EE(ptr noundef nonnull align 8 dereferenceable(16) %0, ptr noundef %1) #2 comdat align 2 {
  %3 = alloca ptr, align 8
  %4 = alloca ptr, align 8
  store ptr %0, ptr %3, align 8, !tbaa !106
  store ptr %1, ptr %4, align 8, !tbaa !65
  %5 = load ptr, ptr %4, align 8, !tbaa !65
  ret ptr %5
}

; Function Attrs: inlinehint mustprogress nounwind uwtable
define linkonce_odr hidden noundef ptr @_ZN6frozen4bits10LowerBoundIN4LIEF5MachO10ExportInfo5FLAGSENS_4impl10CompareKeyISt4lessIS5_EEEE9doit_fastIPKSt4pairIS5_PKcELm1EEET_SJ_St17integral_constantImXT0_EE(ptr noundef nonnull align 8 dereferenceable(16) %0, ptr noundef %1) #2 comdat align 2 {
  %3 = alloca ptr, align 8
  %4 = alloca ptr, align 8
  %5 = alloca i64, align 8
  %6 = alloca ptr, align 8
  %7 = alloca ptr, align 8
  store ptr %0, ptr %3, align 8, !tbaa !106
  store ptr %1, ptr %4, align 8, !tbaa !65
  %8 = load ptr, ptr %3, align 8
  call void @llvm.lifetime.start.p0(i64 8, ptr %5) #19
  store i64 0, ptr %5, align 8, !tbaa !24
  call void @llvm.lifetime.start.p0(i64 8, ptr %6) #19
  %9 = load ptr, ptr %4, align 8, !tbaa !65
  %10 = getelementptr inbounds nuw %"struct.std::pair.14", ptr %9, i64 0
  store ptr %10, ptr %6, align 8, !tbaa !65
  call void @llvm.lifetime.start.p0(i64 8, ptr %7) #19
  %11 = getelementptr inbounds nuw %"struct.frozen::bits::LowerBound.20", ptr %8, i32 0, i32 1
  %12 = load ptr, ptr %11, align 8, !tbaa !108
  %13 = load ptr, ptr %6, align 8, !tbaa !65
  %14 = getelementptr inbounds nuw %"struct.frozen::bits::LowerBound.20", ptr %8, i32 0, i32 0
  %15 = load ptr, ptr %14, align 8, !tbaa !110
  %16 = call noundef i32 @_ZNK6frozen4impl10CompareKeyISt4lessIN4LIEF5MachO10ExportInfo5FLAGSEEEclIS6_S6_PKcEEiRKSt4pairIT_T1_ERKT0_(ptr noundef nonnull align 1 dereferenceable(1) %12, ptr noundef nonnull align 8 dereferenceable(16) %13, ptr noundef nonnull align 8 dereferenceable(8) %15)
  %17 = icmp ne i32 %16, 0
  br i1 %17, label %18, label %21

18:                                               ; preds = %2
  %19 = load ptr, ptr %6, align 8, !tbaa !65
  %20 = getelementptr inbounds %"struct.std::pair.14", ptr %19, i64 1
  br label %23

21:                                               ; preds = %2
  %22 = load ptr, ptr %4, align 8, !tbaa !65
  br label %23

23:                                               ; preds = %21, %18
  %24 = phi ptr [ %20, %18 ], [ %22, %21 ]
  store ptr %24, ptr %7, align 8, !tbaa !65
  %25 = load ptr, ptr %7, align 8, !tbaa !65
  %26 = call noundef ptr @_ZN6frozen4bits10LowerBoundIN4LIEF5MachO10ExportInfo5FLAGSENS_4impl10CompareKeyISt4lessIS5_EEEE9doit_fastIPKSt4pairIS5_PKcEEET_SJ_St17integral_constantImLm0EE(ptr noundef nonnull align 8 dereferenceable(16) %8, ptr noundef %25)
  call void @llvm.lifetime.end.p0(i64 8, ptr %7) #19
  call void @llvm.lifetime.end.p0(i64 8, ptr %6) #19
  call void @llvm.lifetime.end.p0(i64 8, ptr %5) #19
  ret ptr %26
}

; Function Attrs: mustprogress nounwind uwtable
define linkonce_odr hidden noundef i32 @_ZNK6frozen4impl10CompareKeyISt4lessIN4LIEF5MachO10ExportInfo5FLAGSEEEclIS6_S6_PKcEEiRKSt4pairIT_T1_ERKT0_(ptr noundef nonnull align 1 dereferenceable(1) %0, ptr noundef nonnull align 8 dereferenceable(16) %1, ptr noundef nonnull align 8 dereferenceable(8) %2) #0 comdat align 2 {
  %4 = alloca ptr, align 8
  %5 = alloca ptr, align 8
  %6 = alloca ptr, align 8
  store ptr %0, ptr %4, align 8, !tbaa !102
  store ptr %1, ptr %5, align 8, !tbaa !65
  store ptr %2, ptr %6, align 8, !tbaa !35
  %7 = load ptr, ptr %4, align 8
  %8 = load ptr, ptr %5, align 8, !tbaa !65
  %9 = call noundef nonnull align 8 dereferenceable(8) ptr @_ZSt3getILm0EN4LIEF5MachO10ExportInfo5FLAGSEPKcERKNSt13tuple_elementIXT_ESt4pairIT0_T1_EE4typeERKSA_(ptr noundef nonnull align 8 dereferenceable(16) %8) #19
  %10 = load ptr, ptr %6, align 8, !tbaa !35
  %11 = call noundef zeroext i1 @_ZNKSt4lessIN4LIEF5MachO10ExportInfo5FLAGSEEclERKS3_S6_(ptr noundef nonnull align 1 dereferenceable(1) %7, ptr noundef nonnull align 8 dereferenceable(8) %9, ptr noundef nonnull align 8 dereferenceable(8) %10)
  %12 = zext i1 %11 to i32
  ret i32 %12
}

; Function Attrs: inlinehint mustprogress nounwind uwtable
define linkonce_odr hidden noundef ptr @_ZN6frozen4bits10LowerBoundIN4LIEF5MachO10ExportInfo5FLAGSENS_4impl10CompareKeyISt4lessIS5_EEEE9doit_fastIPKSt4pairIS5_PKcELm3EEET_SJ_St17integral_constantImXT0_EE(ptr noundef nonnull align 8 dereferenceable(16) %0, ptr noundef %1) #2 comdat align 2 {
  %3 = alloca ptr, align 8
  %4 = alloca ptr, align 8
  %5 = alloca i64, align 8
  %6 = alloca ptr, align 8
  %7 = alloca ptr, align 8
  store ptr %0, ptr %3, align 8, !tbaa !106
  store ptr %1, ptr %4, align 8, !tbaa !65
  %8 = load ptr, ptr %3, align 8
  call void @llvm.lifetime.start.p0(i64 8, ptr %5) #19
  store i64 1, ptr %5, align 8, !tbaa !24
  call void @llvm.lifetime.start.p0(i64 8, ptr %6) #19
  %9 = load ptr, ptr %4, align 8, !tbaa !65
  %10 = getelementptr inbounds nuw %"struct.std::pair.14", ptr %9, i64 1
  store ptr %10, ptr %6, align 8, !tbaa !65
  call void @llvm.lifetime.start.p0(i64 8, ptr %7) #19
  %11 = getelementptr inbounds nuw %"struct.frozen::bits::LowerBound.20", ptr %8, i32 0, i32 1
  %12 = load ptr, ptr %11, align 8, !tbaa !108
  %13 = load ptr, ptr %6, align 8, !tbaa !65
  %14 = getelementptr inbounds nuw %"struct.frozen::bits::LowerBound.20", ptr %8, i32 0, i32 0
  %15 = load ptr, ptr %14, align 8, !tbaa !110
  %16 = call noundef i32 @_ZNK6frozen4impl10CompareKeyISt4lessIN4LIEF5MachO10ExportInfo5FLAGSEEEclIS6_S6_PKcEEiRKSt4pairIT_T1_ERKT0_(ptr noundef nonnull align 1 dereferenceable(1) %12, ptr noundef nonnull align 8 dereferenceable(16) %13, ptr noundef nonnull align 8 dereferenceable(8) %15)
  %17 = icmp ne i32 %16, 0
  br i1 %17, label %18, label %21

18:                                               ; preds = %2
  %19 = load ptr, ptr %6, align 8, !tbaa !65
  %20 = getelementptr inbounds %"struct.std::pair.14", ptr %19, i64 1
  br label %23

21:                                               ; preds = %2
  %22 = load ptr, ptr %4, align 8, !tbaa !65
  br label %23

23:                                               ; preds = %21, %18
  %24 = phi ptr [ %20, %18 ], [ %22, %21 ]
  store ptr %24, ptr %7, align 8, !tbaa !65
  %25 = load ptr, ptr %7, align 8, !tbaa !65
  %26 = call noundef ptr @_ZN6frozen4bits10LowerBoundIN4LIEF5MachO10ExportInfo5FLAGSENS_4impl10CompareKeyISt4lessIS5_EEEE9doit_fastIPKSt4pairIS5_PKcELm1EEET_SJ_St17integral_constantImXT0_EE(ptr noundef nonnull align 8 dereferenceable(16) %8, ptr noundef %25)
  call void @llvm.lifetime.end.p0(i64 8, ptr %7) #19
  call void @llvm.lifetime.end.p0(i64 8, ptr %6) #19
  call void @llvm.lifetime.end.p0(i64 8, ptr %5) #19
  ret ptr %26
}

; Function Attrs: inlinehint mustprogress nounwind uwtable
define linkonce_odr hidden noundef ptr @_ZN6frozen4bits10LowerBoundIN4LIEF5MachO10ExportInfo5FLAGSENS_4impl10CompareKeyISt4lessIS5_EEEE9doitfirstIPKSt4pairIS5_PKcELm3EEET_SJ_St17integral_constantImXT0_EESK_IbLb1EE(ptr noundef nonnull align 8 dereferenceable(16) %0, ptr noundef %1) #2 comdat align 2 {
  %3 = alloca ptr, align 8
  %4 = alloca ptr, align 8
  store ptr %0, ptr %3, align 8, !tbaa !106
  store ptr %1, ptr %4, align 8, !tbaa !65
  %5 = load ptr, ptr %3, align 8
  %6 = load ptr, ptr %4, align 8, !tbaa !65
  %7 = call noundef ptr @_ZN6frozen4bits10LowerBoundIN4LIEF5MachO10ExportInfo5FLAGSENS_4impl10CompareKeyISt4lessIS5_EEEE9doit_fastIPKSt4pairIS5_PKcELm3EEET_SJ_St17integral_constantImXT0_EE(ptr noundef nonnull align 8 dereferenceable(16) %5, ptr noundef %6)
  ret ptr %7
}

; Function Attrs: mustprogress nounwind uwtable
define linkonce_odr hidden void @_ZN6frozen4bits10LowerBoundIN4LIEF5MachO10ExportInfo5FLAGSENS_4impl10CompareKeyISt4lessIS5_EEEEC2ERKS5_RKSA_(ptr noundef nonnull align 8 dereferenceable(16) %0, ptr noundef nonnull align 8 dereferenceable(8) %1, ptr noundef nonnull align 1 dereferenceable(1) %2) unnamed_addr #0 comdat align 2 {
  %4 = alloca ptr, align 8
  %5 = alloca ptr, align 8
  %6 = alloca ptr, align 8
  store ptr %0, ptr %4, align 8, !tbaa !106
  store ptr %1, ptr %5, align 8, !tbaa !35
  store ptr %2, ptr %6, align 8, !tbaa !102
  %7 = load ptr, ptr %4, align 8
  %8 = getelementptr inbounds nuw %"struct.frozen::bits::LowerBound.20", ptr %7, i32 0, i32 0
  %9 = load ptr, ptr %5, align 8, !tbaa !35
  store ptr %9, ptr %8, align 8, !tbaa !35
  %10 = getelementptr inbounds nuw %"struct.frozen::bits::LowerBound.20", ptr %7, i32 0, i32 1
  %11 = load ptr, ptr %6, align 8, !tbaa !102
  store ptr %11, ptr %10, align 8, !tbaa !102
  ret void
}

; Function Attrs: mustprogress nounwind uwtable
define linkonce_odr hidden noundef nonnull align 8 dereferenceable(8) ptr @_ZNSt10__pair_getILm0EE11__const_getIN4LIEF5MachO10ExportInfo5FLAGSEPKcEERKT_RKSt4pairIS8_T0_E(ptr noundef nonnull align 8 dereferenceable(16) %0) #0 comdat align 2 {
  %2 = alloca ptr, align 8
  store ptr %0, ptr %2, align 8, !tbaa !65
  %3 = load ptr, ptr %2, align 8, !tbaa !65
  %4 = getelementptr inbounds nuw %"struct.std::pair.14", ptr %3, i32 0, i32 0
  ret ptr %4
}

; Function Attrs: mustprogress nounwind uwtable
define linkonce_odr hidden noundef ptr @_ZN6frozen4bits11lower_boundILm3EPKSt4pairIN4LIEF5MachO10ExportInfo5FLAGSEPKcES6_NS_4impl10CompareKeyISt4lessIS6_EEEEET0_SH_RKT1_RKT2_(ptr noundef %0, ptr noundef nonnull align 8 dereferenceable(8) %1, ptr noundef nonnull align 1 dereferenceable(1) %2) #0 comdat {
  %4 = alloca ptr, align 8
  %5 = alloca ptr, align 8
  %6 = alloca ptr, align 8
  %7 = alloca %"struct.frozen::bits::LowerBound.20", align 8
  store ptr %0, ptr %4, align 8, !tbaa !65
  store ptr %1, ptr %5, align 8, !tbaa !35
  store ptr %2, ptr %6, align 8, !tbaa !102
  call void @llvm.lifetime.start.p0(i64 16, ptr %7) #19
  %8 = load ptr, ptr %5, align 8, !tbaa !35
  %9 = load ptr, ptr %6, align 8, !tbaa !102
  call void @_ZN6frozen4bits10LowerBoundIN4LIEF5MachO10ExportInfo5FLAGSENS_4impl10CompareKeyISt4lessIS5_EEEEC2ERKS5_RKSA_(ptr noundef nonnull align 8 dereferenceable(16) %7, ptr noundef nonnull align 8 dereferenceable(8) %8, ptr noundef nonnull align 1 dereferenceable(1) %9)
  %10 = load ptr, ptr %4, align 8, !tbaa !65
  %11 = call noundef ptr @_ZN6frozen4bits10LowerBoundIN4LIEF5MachO10ExportInfo5FLAGSENS_4impl10CompareKeyISt4lessIS5_EEEE9doitfirstIPKSt4pairIS5_PKcELm3EEET_SJ_St17integral_constantImXT0_EESK_IbLb1EE(ptr noundef nonnull align 8 dereferenceable(16) %7, ptr noundef %10)
  call void @llvm.lifetime.end.p0(i64 16, ptr %7) #19
  ret ptr %11
}

; Function Attrs: mustprogress nounwind uwtable
define linkonce_odr hidden noundef ptr @_ZNK6frozen4bits6carrayISt4pairIN4LIEF5MachO10ExportInfo5FLAGSEPKcELm3EE5beginEv(ptr noundef nonnull align 8 dereferenceable(48) %0) #0 comdat align 2 {
  %2 = alloca ptr, align 8
  store ptr %0, ptr %2, align 8, !tbaa !104
  %3 = load ptr, ptr %2, align 8
  %4 = getelementptr inbounds nuw %"class.frozen::bits::carray.13", ptr %3, i32 0, i32 0
  %5 = getelementptr inbounds [3 x %"struct.std::pair.14"], ptr %4, i64 0, i64 0
  ret ptr %5
}

; Function Attrs: mustprogress nounwind uwtable
define linkonce_odr hidden noundef zeroext i1 @_ZNKSt4lessIN4LIEF5MachO10ExportInfo5FLAGSEEclERKS3_S6_(ptr noundef nonnull align 1 dereferenceable(1) %0, ptr noundef nonnull align 8 dereferenceable(8) %1, ptr noundef nonnull align 8 dereferenceable(8) %2) #0 comdat align 2 {
  %4 = alloca ptr, align 8
  %5 = alloca ptr, align 8
  %6 = alloca ptr, align 8
  store ptr %0, ptr %4, align 8, !tbaa !111
  store ptr %1, ptr %5, align 8, !tbaa !35
  store ptr %2, ptr %6, align 8, !tbaa !35
  %7 = load ptr, ptr %5, align 8, !tbaa !35
  %8 = load i64, ptr %7, align 8, !tbaa !32
  %9 = load ptr, ptr %6, align 8, !tbaa !35
  %10 = load i64, ptr %9, align 8, !tbaa !32
  %11 = icmp ult i64 %8, %10
  ret i1 %11
}

; Function Attrs: mustprogress nounwind uwtable
define linkonce_odr noundef nonnull align 8 dereferenceable(8) ptr @_ZSt3getILm0EN4LIEF5MachO10ExportInfo5FLAGSEPKcERKNSt13tuple_elementIXT_ESt4pairIT0_T1_EE4typeERKSA_(ptr noundef nonnull align 8 dereferenceable(16) %0) #0 comdat {
  %2 = alloca ptr, align 8
  store ptr %0, ptr %2, align 8, !tbaa !65
  %3 = load ptr, ptr %2, align 8, !tbaa !65
  %4 = call noundef nonnull align 8 dereferenceable(8) ptr @_ZNSt10__pair_getILm0EE11__const_getIN4LIEF5MachO10ExportInfo5FLAGSEPKcEERKT_RKSt4pairIS8_T0_E(ptr noundef nonnull align 8 dereferenceable(16) %3) #19
  ret ptr %4
}

; Function Attrs: inlinehint mustprogress nounwind uwtable
define linkonce_odr hidden noundef ptr @_ZN6frozen3mapIN4LIEF5MachO10ExportInfo5FLAGSEPKcLm3ESt4lessIS4_EE16lower_bound_implIRKS9_S4_EEDTcldtfp_3endEEOT_RKT0_(ptr noundef nonnull align 8 dereferenceable(56) %0, ptr noundef nonnull align 8 dereferenceable(8) %1) #2 comdat align 2 {
  %3 = alloca ptr, align 8
  %4 = alloca ptr, align 8
  store ptr %0, ptr %3, align 8, !tbaa !69
  store ptr %1, ptr %4, align 8, !tbaa !35
  %5 = load ptr, ptr %3, align 8, !tbaa !69
  %6 = getelementptr inbounds nuw %"class.frozen::map.12", ptr %5, i32 0, i32 1
  %7 = call noundef ptr @_ZNK6frozen4bits6carrayISt4pairIN4LIEF5MachO10ExportInfo5FLAGSEPKcELm3EE5beginEv(ptr noundef nonnull align 8 dereferenceable(48) %6) #19
  %8 = load ptr, ptr %4, align 8, !tbaa !35
  %9 = load ptr, ptr %3, align 8, !tbaa !69
  %10 = call noundef ptr @_ZN6frozen4bits11lower_boundILm3EPKSt4pairIN4LIEF5MachO10ExportInfo5FLAGSEPKcES6_NS_4impl10CompareKeyISt4lessIS6_EEEEET0_SH_RKT1_RKT2_(ptr noundef %7, ptr noundef nonnull align 8 dereferenceable(8) %8, ptr noundef nonnull align 1 dereferenceable(1) %9)
  ret ptr %10
}

; Function Attrs: mustprogress nounwind uwtable
define linkonce_odr hidden noundef i32 @_ZNK6frozen4impl10CompareKeyISt4lessIN4LIEF5MachO10ExportInfo5FLAGSEEEclIS6_S6_PKcEEiRKT_RKSt4pairIT0_T1_E(ptr noundef nonnull align 1 dereferenceable(1) %0, ptr noundef nonnull align 8 dereferenceable(8) %1, ptr noundef nonnull align 8 dereferenceable(16) %2) #0 comdat align 2 {
  %4 = alloca ptr, align 8
  %5 = alloca ptr, align 8
  %6 = alloca ptr, align 8
  store ptr %0, ptr %4, align 8, !tbaa !102
  store ptr %1, ptr %5, align 8, !tbaa !35
  store ptr %2, ptr %6, align 8, !tbaa !65
  %7 = load ptr, ptr %4, align 8
  %8 = load ptr, ptr %5, align 8, !tbaa !35
  %9 = load ptr, ptr %6, align 8, !tbaa !65
  %10 = call noundef nonnull align 8 dereferenceable(8) ptr @_ZSt3getILm0EN4LIEF5MachO10ExportInfo5FLAGSEPKcERKNSt13tuple_elementIXT_ESt4pairIT0_T1_EE4typeERKSA_(ptr noundef nonnull align 8 dereferenceable(16) %9) #19
  %11 = call noundef zeroext i1 @_ZNKSt4lessIN4LIEF5MachO10ExportInfo5FLAGSEEclERKS3_S6_(ptr noundef nonnull align 1 dereferenceable(1) %7, ptr noundef nonnull align 8 dereferenceable(8) %8, ptr noundef nonnull align 8 dereferenceable(8) %10)
  %12 = zext i1 %11 to i32
  ret i32 %12
}

; Function Attrs: mustprogress nounwind uwtable
define linkonce_odr hidden noundef ptr @_ZNK6frozen3mapIN4LIEF5MachO10ExportInfo5FLAGSEPKcLm3ESt4lessIS4_EE11lower_boundIS4_EEPKSt4pairIS4_S6_ERKT_(ptr noundef nonnull align 8 dereferenceable(56) %0, ptr noundef nonnull align 8 dereferenceable(8) %1) #0 comdat align 2 {
  %3 = alloca ptr, align 8
  %4 = alloca ptr, align 8
  store ptr %0, ptr %3, align 8, !tbaa !69
  store ptr %1, ptr %4, align 8, !tbaa !35
  %5 = load ptr, ptr %3, align 8
  %6 = load ptr, ptr %4, align 8, !tbaa !35
  %7 = call noundef ptr @_ZN6frozen3mapIN4LIEF5MachO10ExportInfo5FLAGSEPKcLm3ESt4lessIS4_EE16lower_bound_implIRKS9_S4_EEDTcldtfp_3endEEOT_RKT0_(ptr noundef nonnull align 8 dereferenceable(56) %5, ptr noundef nonnull align 8 dereferenceable(8) %6)
  ret ptr %7
}

; Function Attrs: mustprogress nounwind uwtable
define linkonce_odr hidden noundef ptr @_ZNK6frozen4bits6carrayISt4pairIN4LIEF5MachO10ExportInfo5FLAGSEPKcELm3EE3endEv(ptr noundef nonnull align 8 dereferenceable(48) %0) #0 comdat align 2 {
  %2 = alloca ptr, align 8
  store ptr %0, ptr %2, align 8, !tbaa !104
  %3 = load ptr, ptr %2, align 8
  %4 = getelementptr inbounds nuw %"class.frozen::bits::carray.13", ptr %3, i32 0, i32 0
  %5 = getelementptr inbounds [3 x %"struct.std::pair.14"], ptr %4, i64 0, i64 0
  %6 = getelementptr inbounds nuw %"struct.std::pair.14", ptr %5, i64 3
  ret ptr %6
}

; Function Attrs: inlinehint mustprogress nounwind uwtable
define linkonce_odr hidden noundef ptr @_ZN6frozen3mapIN4LIEF5MachO10ExportInfo5FLAGSEPKcLm3ESt4lessIS4_EE9find_implIRKS9_S4_EEDaOT_RKT0_(ptr noundef nonnull align 8 dereferenceable(56) %0, ptr noundef nonnull align 8 dereferenceable(8) %1) #2 comdat align 2 {
  %3 = alloca ptr, align 8
  %4 = alloca ptr, align 8
  %5 = alloca ptr, align 8
  %6 = alloca ptr, align 8
  %7 = alloca i32, align 4
  store ptr %0, ptr %4, align 8, !tbaa !69
  store ptr %1, ptr %5, align 8, !tbaa !35
  call void @llvm.lifetime.start.p0(i64 8, ptr %6) #19
  %8 = load ptr, ptr %4, align 8, !tbaa !69
  %9 = load ptr, ptr %5, align 8, !tbaa !35
  %10 = call noundef ptr @_ZNK6frozen3mapIN4LIEF5MachO10ExportInfo5FLAGSEPKcLm3ESt4lessIS4_EE11lower_boundIS4_EEPKSt4pairIS4_S6_ERKT_(ptr noundef nonnull align 8 dereferenceable(56) %8, ptr noundef nonnull align 8 dereferenceable(8) %9)
  store ptr %10, ptr %6, align 8, !tbaa !65
  %11 = load ptr, ptr %6, align 8, !tbaa !65
  %12 = load ptr, ptr %4, align 8, !tbaa !69
  %13 = call noundef ptr @_ZNK6frozen3mapIN4LIEF5MachO10ExportInfo5FLAGSEPKcLm3ESt4lessIS4_EE3endEv(ptr noundef nonnull align 8 dereferenceable(56) %12)
  %14 = icmp ne ptr %11, %13
  br i1 %14, label %15, label %23

15:                                               ; preds = %2
  %16 = load ptr, ptr %4, align 8, !tbaa !69
  %17 = load ptr, ptr %5, align 8, !tbaa !35
  %18 = load ptr, ptr %6, align 8, !tbaa !65
  %19 = call noundef i32 @_ZNK6frozen4impl10CompareKeyISt4lessIN4LIEF5MachO10ExportInfo5FLAGSEEEclIS6_S6_PKcEEiRKT_RKSt4pairIT0_T1_E(ptr noundef nonnull align 1 dereferenceable(1) %16, ptr noundef nonnull align 8 dereferenceable(8) %17, ptr noundef nonnull align 8 dereferenceable(16) %18)
  %20 = icmp ne i32 %19, 0
  br i1 %20, label %23, label %21

21:                                               ; preds = %15
  %22 = load ptr, ptr %6, align 8, !tbaa !65
  store ptr %22, ptr %3, align 8
  store i32 1, ptr %7, align 4
  br label %26

23:                                               ; preds = %15, %2
  %24 = load ptr, ptr %4, align 8, !tbaa !69
  %25 = call noundef ptr @_ZNK6frozen3mapIN4LIEF5MachO10ExportInfo5FLAGSEPKcLm3ESt4lessIS4_EE3endEv(ptr noundef nonnull align 8 dereferenceable(56) %24)
  store ptr %25, ptr %3, align 8
  store i32 1, ptr %7, align 4
  br label %26

26:                                               ; preds = %23, %21
  call void @llvm.lifetime.end.p0(i64 8, ptr %6) #19
  %27 = load ptr, ptr %3, align 8
  ret ptr %27
}

; Function Attrs: mustprogress nounwind uwtable
define linkonce_odr hidden noundef ptr @_ZNK6frozen3mapIN4LIEF5MachO10ExportInfo5FLAGSEPKcLm3ESt4lessIS4_EE3endEv(ptr noundef nonnull align 8 dereferenceable(56) %0) #0 comdat align 2 {
  %2 = alloca ptr, align 8
  store ptr %0, ptr %2, align 8, !tbaa !69
  %3 = load ptr, ptr %2, align 8
  %4 = getelementptr inbounds nuw %"class.frozen::map.12", ptr %3, i32 0, i32 1
  %5 = call noundef ptr @_ZNK6frozen4bits6carrayISt4pairIN4LIEF5MachO10ExportInfo5FLAGSEPKcELm3EE3endEv(ptr noundef nonnull align 8 dereferenceable(48) %4) #19
  ret ptr %5
}

; Function Attrs: mustprogress nounwind uwtable
define linkonce_odr hidden noundef ptr @_ZNK6frozen3mapIN4LIEF5MachO10ExportInfo5FLAGSEPKcLm3ESt4lessIS4_EE4findIS4_EEPKSt4pairIS4_S6_ERKT_(ptr noundef nonnull align 8 dereferenceable(56) %0, ptr noundef nonnull align 8 dereferenceable(8) %1) #0 comdat align 2 {
  %3 = alloca ptr, align 8
  %4 = alloca ptr, align 8
  store ptr %0, ptr %3, align 8, !tbaa !69
  store ptr %1, ptr %4, align 8, !tbaa !35
  %5 = load ptr, ptr %3, align 8
  %6 = load ptr, ptr %4, align 8, !tbaa !35
  %7 = call noundef ptr @_ZN6frozen3mapIN4LIEF5MachO10ExportInfo5FLAGSEPKcLm3ESt4lessIS4_EE9find_implIRKS9_S4_EEDaOT_RKT0_(ptr noundef nonnull align 8 dereferenceable(56) %5, ptr noundef nonnull align 8 dereferenceable(8) %6)
  ret ptr %7
}

; Function Attrs: mustprogress nounwind uwtable
define noundef ptr @_ZN4LIEF5MachO9to_stringENS0_10ExportInfo5FLAGSE(i64 noundef %0) #0 {
  %2 = alloca ptr, align 8
  %3 = alloca i64, align 8
  %4 = alloca %"class.frozen::map.12", align 8
  %5 = alloca ptr, align 8
  %6 = alloca i32, align 4
  store i64 %0, ptr %3, align 8, !tbaa !32
  call void @llvm.lifetime.start.p0(i64 56, ptr %4) #19
  call void @llvm.memcpy.p0.p0.i64(ptr align 8 %4, ptr align 8 @__const._ZN4LIEF5MachO9to_stringENS0_10ExportInfo5FLAGSE.enums2str, i64 56, i1 false)
  call void @llvm.lifetime.start.p0(i64 8, ptr %5) #19
  %7 = call noundef ptr @_ZNK6frozen3mapIN4LIEF5MachO10ExportInfo5FLAGSEPKcLm3ESt4lessIS4_EE4findIS4_EEPKSt4pairIS4_S6_ERKT_(ptr noundef nonnull align 8 dereferenceable(56) %4, ptr noundef nonnull align 8 dereferenceable(8) %3)
  store ptr %7, ptr %5, align 8, !tbaa !65
  %8 = load ptr, ptr %5, align 8, !tbaa !65
  %9 = call noundef ptr @_ZNK6frozen3mapIN4LIEF5MachO10ExportInfo5FLAGSEPKcLm3ESt4lessIS4_EE3endEv(ptr noundef nonnull align 8 dereferenceable(56) %4)
  %10 = icmp ne ptr %8, %9
  br i1 %10, label %11, label %15

11:                                               ; preds = %1
  %12 = load ptr, ptr %5, align 8, !tbaa !65
  %13 = getelementptr inbounds nuw %"struct.std::pair.14", ptr %12, i32 0, i32 1
  %14 = load ptr, ptr %13, align 8, !tbaa !67
  store ptr %14, ptr %2, align 8
  store i32 1, ptr %6, align 4
  br label %16

15:                                               ; preds = %1
  store i32 0, ptr %6, align 4
  br label %16

16:                                               ; preds = %15, %11
  call void @llvm.lifetime.end.p0(i64 8, ptr %5) #19
  %17 = load i32, ptr %6, align 4
  switch i32 %17, label %19 [
    i32 0, label %18
  ]

18:                                               ; preds = %16
  store ptr @.str.7, ptr %2, align 8
  store i32 1, ptr %6, align 4
  br label %19

19:                                               ; preds = %18, %16
  call void @llvm.lifetime.end.p0(i64 56, ptr %4) #19
  %20 = load ptr, ptr %2, align 8
  ret ptr %20
}